; Function Attrs: mustprogress uwtable
define hidden void @_ZN3sls12bv_valuation8round_upERNS_5bvectERKSt8functionIFbRKS1_EE(ptr noundef nonnull readonly align 8 captures(none) dereferenceable(184) %0, ptr noundef nonnull align 8 dereferenceable(20) %1, ptr noundef nonnull align 8 dereferenceable(32) %2) local_unnamed_addr #3 align 2 {
  %4 = getelementptr inbounds nuw i8, ptr %2, i64 16
  %5 = load ptr, ptr %4, align 8, !tbaa !98
  %.not.i.i14 = icmp eq ptr %5, null
  br i1 %.not.i.i14, label %._crit_edge, label %_ZNKSt8functionIFbRKN3sls5bvectEEEclES3_.exit.lr.ph

_ZNKSt8functionIFbRKN3sls5bvectEEEclES3_.exit.lr.ph: ; preds = %3
  %6 = getelementptr inbounds nuw i8, ptr %2, i64 24
  %7 = getelementptr inbounds nuw i8, ptr %0, i64 152
  %8 = getelementptr inbounds nuw i8, ptr %0, i64 72
  br label %_ZNKSt8functionIFbRKN3sls5bvectEEEclES3_.exit

._crit_edge:                                      ; preds = %29, %3
  tail call void @_ZSt25__throw_bad_function_callv() #30
  unreachable

_ZNKSt8functionIFbRKN3sls5bvectEEEclES3_.exit:    ; preds = %_ZNKSt8functionIFbRKN3sls5bvectEEEclES3_.exit.lr.ph, %29
  %.015 = phi i32 [ 0, %_ZNKSt8functionIFbRKN3sls5bvectEEEclES3_.exit.lr.ph ], [ %30, %29 ]
  %9 = load ptr, ptr %6, align 8, !tbaa !95
  %10 = tail call noundef zeroext i1 %9(ptr noundef nonnull align 8 dereferenceable(32) %2, ptr noundef nonnull align 8 dereferenceable(20) %1)
  %11 = load i32, ptr %7, align 8
  %12 = icmp uge i32 %.015, %11
  %or.cond.not = select i1 %10, i1 true, i1 %12
  br i1 %or.cond.not, label %.critedge, label %13

.critedge:                                        ; preds = %_ZNKSt8functionIFbRKN3sls5bvectEEEclES3_.exit
  tail call void @_ZNK3sls12bv_valuation16repair_sign_bitsERNS_5bvectE(ptr noundef nonnull align 8 dereferenceable(184) %0, ptr noundef nonnull align 8 dereferenceable(20) %1)
  ret void

13:                                               ; preds = %_ZNKSt8functionIFbRKN3sls5bvectEEEclES3_.exit
  %14 = lshr i32 %.015, 5
  %15 = load ptr, ptr %8, align 8, !tbaa !14
  %16 = zext nneg i32 %14 to i64
  %17 = getelementptr inbounds nuw i32, ptr %15, i64 %16
  %18 = load i32, ptr %17, align 4, !tbaa !15
  %19 = and i32 %.015, 31
  %20 = shl nuw i32 1, %19
  %21 = and i32 %18, %20
  %.not = icmp eq i32 %21, 0
  br i1 %.not, label %22, label %29

22:                                               ; preds = %13
  %23 = load ptr, ptr %1, align 8, !tbaa !14
  %24 = getelementptr inbounds nuw i32, ptr %23, i64 %16
  %25 = load i32, ptr %24, align 4, !tbaa !15
  %26 = and i32 %25, %20
  %.not13 = icmp eq i32 %26, 0
  br i1 %.not13, label %27, label %29

27:                                               ; preds = %22
  %28 = or i32 %25, %20
  store i32 %28, ptr %24, align 4, !tbaa !15
  br label %29

29:                                               ; preds = %13, %22, %27
  %30 = add nuw i32 %.015, 1
  %31 = load ptr, ptr %4, align 8, !tbaa !98
  %.not.i.i = icmp eq ptr %31, null
  br i1 %.not.i.i, label %._crit_edge, label %_ZNKSt8functionIFbRKN3sls5bvectEEEclES3_.exit, !llvm.loop !100
}